target datalayout = "e-m:e-p270:32:32-p271:32:32-p272:64:64-i64:64-i128:128-f80:128-n8:16:32:64-S128"
target triple = "x86_64-pc-linux-gnu"

%"class.llvm::StringRef" = type { ptr, i64 }
%"class.llvm::cl::Option" = type { ptr, i16, i16, i16, i16, %"class.llvm::StringRef", %"class.llvm::StringRef", %"class.llvm::StringRef", %"class.llvm::SmallVector", %"class.llvm::SmallPtrSet" }
%"class.llvm::SmallVector" = type { %"class.llvm::SmallVectorImpl", %"struct.llvm::SmallVectorStorage" }
%"class.llvm::SmallVectorImpl" = type { %"class.llvm::SmallVectorTemplateBase" }
%"class.llvm::SmallVectorTemplateBase" = type { %"class.llvm::SmallVectorTemplateCommon" }
%"class.llvm::SmallVectorTemplateCommon" = type { %"class.llvm::SmallVectorBase" }
%"class.llvm::SmallVectorBase" = type { ptr, i32, i32 }
%"struct.llvm::SmallVectorStorage" = type { [8 x i8] }
%"class.llvm::SmallPtrSet" = type { %"class.llvm::SmallPtrSetImpl.base", [1 x ptr] }
%"class.llvm::SmallPtrSetImpl.base" = type { %"class.llvm::SmallPtrSetImplBase.base" }
%"class.llvm::SmallPtrSetImplBase.base" = type <{ ptr, ptr, i32, i32, i32 }>
%"struct.llvm::cl::GenericOptionValue" = type { ptr }
%"class.llvm::cl::basic_parser_impl" = type { ptr }
%"class.std::_Function_base" = type { %"union.std::_Any_data", ptr }
%"union.std::_Any_data" = type { %"union.std::_Nocopy_types" }
%"union.std::_Nocopy_types" = type { { i64, i64 } }
%"class.llvm::cl::parser.56" = type { %"class.llvm::cl::basic_parser" }
%"class.llvm::cl::basic_parser" = type { %"class.llvm::cl::basic_parser_impl" }
%"class.std::function.57" = type { %"class.std::_Function_base", ptr }
%"class.llvm::cl::opt.189" = type { %"class.llvm::cl::Option", %"class.llvm::cl::opt_storage.190", %"class.llvm::cl::parser.56", %"class.std::function.57" }
%"class.llvm::cl::opt_storage.190" = type { ptr, %"struct.llvm::cl::OptionValue.191" }
%"struct.llvm::cl::OptionValue.191" = type { %"struct.llvm::cl::OptionValueBase.192" }
%"struct.llvm::cl::OptionValueBase.192" = type { %"struct.llvm::cl::GenericOptionValue" }

@_ZL13ArgHelpPrefix = internal global %"class.llvm::StringRef" { ptr @.str.76, i64 3 }, align 8
@_ZL13ArgPrefixLong = internal global %"class.llvm::StringRef" { ptr @.str.75, i64 2 }, align 8
@_ZL9ArgPrefix = internal global %"class.llvm::StringRef" { ptr @.str.53, i64 1 }, align 8

; Function Attrs: mustprogress nounwind uwtable
define linkonce_odr hidden noundef i64 @_ZNK4llvm9StringRef4sizeEv(ptr noundef nonnull align 8 dereferenceable(16) %0) #0 comdat align 2 {
  %2 = alloca ptr, align 8
  store ptr %0, ptr %2, align 8
  %3 = load ptr, ptr %2, align 8
  %4 = getelementptr inbounds nuw %"class.llvm::StringRef", ptr %3, i32 0, i32 1
  %5 = load i64, ptr %4, align 8
  ret i64 %5
}

; Function Attrs: mustprogress nounwind uwtable
define internal { ptr, i64 } @_ZL11getValueStrRKN4llvm2cl6OptionENS_9StringRefE(ptr noundef nonnull align 8 dereferenceable(128) %0, ptr %1, i64 %2) #0 {
  %4 = alloca %"class.llvm::StringRef", align 8
  %5 = alloca %"class.llvm::StringRef", align 8
  %6 = alloca ptr, align 8
  %7 = getelementptr inbounds nuw { ptr, i64 }, ptr %5, i32 0, i32 0
  store ptr %1, ptr %7, align 8
  %8 = getelementptr inbounds nuw { ptr, i64 }, ptr %5, i32 0, i32 1
  store i64 %2, ptr %8, align 8
  store ptr %0, ptr %6, align 8
  %9 = load ptr, ptr %6, align 8
  %10 = getelementptr inbounds nuw %"class.llvm::cl::Option", ptr %9, i32 0, i32 7
  %11 = call noundef zeroext i1 @_ZNK4llvm9StringRef5emptyEv(ptr noundef nonnull align 8 dereferenceable(16) %10)
  br i1 %11, label %12, label %13

12:                                               ; preds = %3
  call void @llvm.memcpy.p0.p0.i64(ptr align 8 %4, ptr align 8 %5, i64 16, i1 false)
  br label %16

13:                                               ; preds = %3
  %14 = load ptr, ptr %6, align 8
  %15 = getelementptr inbounds nuw %"class.llvm::cl::Option", ptr %14, i32 0, i32 7
  call void @llvm.memcpy.p0.p0.i64(ptr align 8 %4, ptr align 8 %15, i64 16, i1 false)
  br label %16

16:                                               ; preds = %13, %12
  %17 = load { ptr, i64 }, ptr %4, align 8
  ret { ptr, i64 } %17
}

; Function Attrs: mustprogress nounwind uwtable
define linkonce_odr hidden noundef i32 @_ZNK4llvm2cl6Option12getMiscFlagsEv(ptr noundef nonnull align 8 dereferenceable(128) %0) #0 comdat align 2 {
  %2 = alloca ptr, align 8
  store ptr %0, ptr %2, align 8
  %3 = load ptr, ptr %2, align 8
  %4 = getelementptr inbounds nuw %"class.llvm::cl::Option", ptr %3, i32 0, i32 2
  %5 = load i16, ptr %4, align 2
  %6 = lshr i16 %5, 9
  %7 = and i16 %6, 31
  %8 = zext i16 %7 to i32
  ret i32 %8
}

; Function Attrs: mustprogress nounwind uwtable
define linkonce_odr hidden noundef zeroext i1 @_ZNK4llvm9StringRef5emptyEv(ptr noundef nonnull align 8 dereferenceable(16) %0) #0 comdat align 2 {
  %2 = alloca ptr, align 8
  store ptr %0, ptr %2, align 8
  %3 = load ptr, ptr %2, align 8
  %4 = getelementptr inbounds nuw %"class.llvm::StringRef", ptr %3, i32 0, i32 1
  %5 = load i64, ptr %4, align 8
  %6 = icmp eq i64 %5, 0
  ret i1 %6
}

; Function Attrs: mustprogress nounwind uwtable
define internal noundef i64 @_ZL19argPlusPrefixesSizeN4llvm9StringRefEm(ptr %0, i64 %1, i64 noundef %2) #0 {
  %4 = alloca i64, align 8
  %5 = alloca %"class.llvm::StringRef", align 8
  %6 = alloca i64, align 8
  %7 = alloca i64, align 8
  %8 = getelementptr inbounds nuw { ptr, i64 }, ptr %5, i32 0, i32 0
  store ptr %0, ptr %8, align 8
  %9 = getelementptr inbounds nuw { ptr, i64 }, ptr %5, i32 0, i32 1
  store i64 %1, ptr %9, align 8
  store i64 %2, ptr %6, align 8
  %10 = call noundef i64 @_ZNK4llvm9StringRef4sizeEv(ptr noundef nonnull align 8 dereferenceable(16) %5)
  store i64 %10, ptr %7, align 8
  %11 = load i64, ptr %7, align 8
  %12 = icmp eq i64 %11, 1
  br i1 %12, label %13, label %21

13:                                               ; preds = %3
  %14 = load i64, ptr %7, align 8
  %15 = load i64, ptr %6, align 8
  %16 = add i64 %14, %15
  %17 = call noundef i64 @_ZNK4llvm9StringRef4sizeEv(ptr noundef nonnull align 8 dereferenceable(16) @_ZL9ArgPrefix)
  %18 = add i64 %16, %17
  %19 = call noundef i64 @_ZNK4llvm9StringRef4sizeEv(ptr noundef nonnull align 8 dereferenceable(16) @_ZL13ArgHelpPrefix)
  %20 = add i64 %18, %19
  store i64 %20, ptr %4, align 8
  br label %29

21:                                               ; preds = %3
  %22 = load i64, ptr %7, align 8
  %23 = load i64, ptr %6, align 8
  %24 = add i64 %22, %23
  %25 = call noundef i64 @_ZNK4llvm9StringRef4sizeEv(ptr noundef nonnull align 8 dereferenceable(16) @_ZL13ArgPrefixLong)
  %26 = add i64 %24, %25
  %27 = call noundef i64 @_ZNK4llvm9StringRef4sizeEv(ptr noundef nonnull align 8 dereferenceable(16) @_ZL13ArgHelpPrefix)
  %28 = add i64 %26, %27
  store i64 %28, ptr %4, align 8
  br label %29

29:                                               ; preds = %21, %13
  %30 = load i64, ptr %4, align 8
  ret i64 %30
}

; Function Attrs: mustprogress nounwind uwtable
define dso_local noundef i64 @_ZNK4llvm2cl17basic_parser_impl14getOptionWidthERKNS0_6OptionE(ptr noundef nonnull align 8 dereferenceable(8) %0, ptr noundef nonnull align 8 dereferenceable(128) %1) #0 align 2 {
  %3 = alloca ptr, align 8
  %4 = alloca ptr, align 8
  %5 = alloca i64, align 8
  %6 = alloca %"class.llvm::StringRef", align 8
  %7 = alloca %"class.llvm::StringRef", align 8
  %8 = alloca i64, align 8
  %9 = alloca %"class.llvm::StringRef", align 8
  %10 = alloca %"class.llvm::StringRef", align 8
  store ptr %0, ptr %3, align 8
  store ptr %1, ptr %4, align 8
  %11 = load ptr, ptr %3, align 8
  %12 = load ptr, ptr %4, align 8
  %13 = getelementptr inbounds nuw %"class.llvm::cl::Option", ptr %12, i32 0, i32 5
  call void @llvm.memcpy.p0.p0.i64(ptr align 8 %6, ptr align 8 %13, i64 16, i1 false)
  %14 = getelementptr inbounds nuw { ptr, i64 }, ptr %6, i32 0, i32 0
  %15 = load ptr, ptr %14, align 8
  %16 = getelementptr inbounds nuw { ptr, i64 }, ptr %6, i32 0, i32 1
  %17 = load i64, ptr %16, align 8
  %18 = call noundef i64 @_ZL19argPlusPrefixesSizeN4llvm9StringRefEm(ptr %15, i64 %17, i64 noundef 2)
  store i64 %18, ptr %5, align 8
  %19 = load ptr, ptr %11, align 8
  %20 = getelementptr inbounds ptr, ptr %19, i64 2
  %21 = load ptr, ptr %20, align 8
  %22 = call { ptr, i64 } %21(ptr noundef nonnull align 8 dereferenceable(8) %11)
  %23 = getelementptr inbounds nuw { ptr, i64 }, ptr %7, i32 0, i32 0
  %24 = extractvalue { ptr, i64 } %22, 0
  store ptr %24, ptr %23, align 8
  %25 = getelementptr inbounds nuw { ptr, i64 }, ptr %7, i32 0, i32 1
  %26 = extractvalue { ptr, i64 } %22, 1
  store i64 %26, ptr %25, align 8
  %27 = call noundef zeroext i1 @_ZNK4llvm9StringRef5emptyEv(ptr noundef nonnull align 8 dereferenceable(16) %7)
  br i1 %27, label %50, label %28

28:                                               ; preds = %2
  store i64 3, ptr %8, align 8
  %29 = load ptr, ptr %4, align 8
  %30 = call noundef i32 @_ZNK4llvm2cl6Option12getMiscFlagsEv(ptr noundef nonnull align 8 dereferenceable(128) %29)
  %31 = and i32 %30, 2
  %32 = icmp ne i32 %31, 0
  br i1 %32, label %33, label %34

33:                                               ; preds = %28
  store i64 6, ptr %8, align 8
  br label %34

34:                                               ; preds = %33, %28
  %35 = load ptr, ptr %4, align 8
  call void @llvm.memcpy.p0.p0.i64(ptr align 8 %10, ptr align 8 %7, i64 16, i1 false)
  %36 = getelementptr inbounds nuw { ptr, i64 }, ptr %10, i32 0, i32 0
  %37 = load ptr, ptr %36, align 8
  %38 = getelementptr inbounds nuw { ptr, i64 }, ptr %10, i32 0, i32 1
  %39 = load i64, ptr %38, align 8
  %40 = call { ptr, i64 } @_ZL11getValueStrRKN4llvm2cl6OptionENS_9StringRefE(ptr noundef nonnull align 8 dereferenceable(128) %35, ptr %37, i64 %39)
  %41 = getelementptr inbounds nuw { ptr, i64 }, ptr %9, i32 0, i32 0
  %42 = extractvalue { ptr, i64 } %40, 0
  store ptr %42, ptr %41, align 8
  %43 = getelementptr inbounds nuw { ptr, i64 }, ptr %9, i32 0, i32 1
  %44 = extractvalue { ptr, i64 } %40, 1
  store i64 %44, ptr %43, align 8
  %45 = call noundef i64 @_ZNK4llvm9StringRef4sizeEv(ptr noundef nonnull align 8 dereferenceable(16) %9)
  %46 = load i64, ptr %8, align 8
  %47 = add i64 %45, %46
  %48 = load i64, ptr %5, align 8
  %49 = add i64 %48, %47
  store i64 %49, ptr %5, align 8
  br label %50

50:                                               ; preds = %34, %2
  %51 = load i64, ptr %5, align 8
  ret i64 %51
}

; Function Attrs: mustprogress nounwind uwtable
define internal noundef i64 @_ZNK4llvm2cl3optIN12_GLOBAL__N_118HelpPrinterWrapperELb1ENS0_6parserIbEEE14getOptionWidthEv(ptr noundef nonnull align 8 dereferenceable(184) %0) unnamed_addr #0 align 2 {
  %2 = alloca ptr, align 8
  store ptr %0, ptr %2, align 8
  %3 = load ptr, ptr %2, align 8
  %4 = getelementptr inbounds nuw %"class.llvm::cl::opt.189", ptr %3, i32 0, i32 2
  %5 = call noundef i64 @_ZNK4llvm2cl17basic_parser_impl14getOptionWidthERKNS0_6OptionE(ptr noundef nonnull align 8 dereferenceable(8) %4, ptr noundef nonnull align 8 dereferenceable(128) %3)
  ret i64 %5
}