; Function Attrs: mustprogress nounwind uwtable
define internal noundef i64 @_ZNK4llvm2cl3optIN12_GLOBAL__N_118HelpPrinterWrapperELb1ENS0_6parserIbEEE14getOptionWidthEv(ptr noundef nonnull align 8 dereferenceable(184) %0) unnamed_addr #0 align 2 {
_ZL19argPlusPrefixesSizeN4llvm9StringRefEm.exit.i:
  %1 = getelementptr inbounds nuw i8, ptr %0, i64 144
  %.sroa.22.0..sroa_idx.i = getelementptr inbounds i8, ptr %0, i64 24
  %.sroa.22.0.copyload.i = load i64, ptr %.sroa.22.0..sroa_idx.i, align 8
  %2 = icmp eq i64 %.sroa.22.0.copyload.i, 1
  %3 = add i64 %.sroa.22.0.copyload.i, 7
  %.sink.i.i = select i1 %2, i64 7, i64 %3
  %4 = load ptr, ptr %1, align 8
  %5 = getelementptr inbounds i8, ptr %4, i64 16
  %6 = load ptr, ptr %5, align 8
  %7 = tail call { ptr, i64 } %6(ptr noundef nonnull align 8 dereferenceable(8) %1) #25
  %8 = extractvalue { ptr, i64 } %7, 1
  %9 = icmp eq i64 %8, 0
  br i1 %9, label %_ZNK4llvm2cl17basic_parser_impl14getOptionWidthERKNS0_6OptionE.exit, label %10

10:                                               ; preds = %_ZL19argPlusPrefixesSizeN4llvm9StringRefEm.exit.i
  %11 = getelementptr inbounds nuw i8, ptr %0, i64 10
  %12 = load i16, ptr %11, align 2
  %13 = and i16 %12, 1024
  %.not.i = icmp eq i16 %13, 0
  %spec.select.i = select i1 %.not.i, i64 3, i64 6
  %14 = getelementptr inbounds i8, ptr %0, i64 56
  %.val9.i = load i64, ptr %14, align 8
  %15 = icmp eq i64 %.val9.i, 0
  %.sroa.3.0.i.i = select i1 %15, i64 %8, i64 %.val9.i
  %16 = add i64 %spec.select.i, %.sink.i.i
  %17 = add i64 %16, %.sroa.3.0.i.i
  br label %_ZNK4llvm2cl17basic_parser_impl14getOptionWidthERKNS0_6OptionE.exit

_ZNK4llvm2cl17basic_parser_impl14getOptionWidthERKNS0_6OptionE.exit: ; preds = %_ZL19argPlusPrefixesSizeN4llvm9StringRefEm.exit.i, %10
  %.0.i = phi i64 [ %.sink.i.i, %_ZL19argPlusPrefixesSizeN4llvm9StringRefEm.exit.i ], [ %17, %10 ]
  ret i64 %.0.i
}